(lp1
I222016
aI170558
aI257350
aI311914
aI467311
aI309322
aI343322
aI496939
aI93785
aI287927
aI270912
aI95989
aI462559
aI168194
aI18885
aI136461
aI540988
aI246446
aI280778
aI520451
aI193094
aI453287
aI498943
aI10581
aI180220
aI487399
aI307264
aI327628
aI138514
aI69242
aI31604
aI570618
aI199956
aI290511
aI85339
aI568614
aI443749
aI155417
aI529602
aI512845
aI577196
aI539631
aI450776
aI515622
aI63230
aI387731
aI23072
aI359825
aI36736
aI545334
aI136711
aI196663
aI395030
aI460408
aI31187
aI112327
aI58677
aI110894
aI490385
aI27627
aI571451
aI470025
aI501204
aI564781
aI435718
aI201476
aI34223
aI295154
aI356237
aI372489
aI394539
aI203177
aI494032
aI207250
aI201173
aI399456
aI162109
aI362561
aI69564
aI272157
aI192835
aI455545
aI83002
aI524709
aI56615
aI211230
aI491833
aI313007
aI116956
aI545124
aI368440
aI13188
aI438978
aI314681
aI412501
aI476430
aI143085
aI410356
aI63820
aI36663
aI268266
aI258792
aI521739
aI435482
aI369521
aI376436
aI418181
aI499719
aI472058
aI362154
aI559186
aI16449
aI436464
aI38301
aI130286
aI283220
aI82225
aI98502
aI292058
aI267463
aI373893
aI166903
aI132262
aI92402
aI298564
aI486350
aI72124
aI135966
aI568116
aI362816
aI258950
aI326832
aI109858
aI110926
aI52086
aI103566
aI320835
aI537349
aI315768
aI536286
aI89770
aI130666
aI132668
aI423448
aI22880
aI130971
aI454072
aI544307
aI430215
aI467126
aI11758
aI425260
aI405848
aI554642
aI160380
aI142866
aI506372
aI442154
aI119199
aI538838
aI459524
aI167118
aI101315
aI127555
aI548905
aI220991
aI399262
aI143569
aI239942
aI247177
aI348874
aI279837
aI533864
aI350633
aI133994
aI434765
aI199011
aI191805
aI431977
aI382979
aI93441
aI213902
aI189461
aI134818
aI526681
aI41940
aI206013
aI247521
aI375659
aI551507
aI459718
aI327198
aI62132
aI412697
aI46085
aI123028
aI353582
aI46580
aI492318
aI174802
aI42865
aI523682
aI196977
aI417234
aI392843
aI234046
aI130142
aI356767
aI469798
aI508881
aI423454
aI117071
aI499267
aI57071
aI105363
aI455333
aI195294
aI552886
aI206256
aI463823
aI488844
aI5174
aI563986
aI407373
aI39464
aI392887
aI453286
aI419879
aI423052
aI563076
aI306435
aI79710
aI579176
aI183617
aI157209
aI519552
aI281355
aI422469
aI367788
aI94210
aI559865
aI277950
aI277788
aI506270
aI337422
aI499037
aI315242
aI345286
aI527656
aI44204
aI195332
aI206405
aI40768
aI346947
aI303430
aI6075
aI252193
aI317349
aI454923
aI581042
aI56608
aI52634
aI101597
aI427362
aI502554
aI479038
aI93565
aI498570
aI179650
aI214059
aI24585
aI581061
aI325786
aI180048
aI434381
aI482872
aI384895
aI21459
aI106382
aI24368
aI419391
aI480979
aI435360
aI557387
aI413222
aI441464
aI242867
aI250194
aI47281
aI221360
aI400881
aI49495
aI315211
aI310181
aI401229
aI204785
aI49725
aI441720
aI316575
aI57337
aI135775
aI496683
aI519347
aI178871
aI115056
aI450526
aI504338
aI236217
aI111189
aI520569
aI574251
aI573744
aI332013
aI227441
aI362751
aI44996
aI476881
aI105685
aI293142
aI399747
aI13540
aI59229
aI550449
aI338991
aI128013
aI71870
aI461794
aI271282
aI66328
aI365772
aI340267
aI21469
aI153638
aI85143
aI299924
aI135875
aI172947
aI381984
aI16720
aI263039
aI556162
aI340736
aI16125
aI12146
aI160064
aI196497
aI17316
aI187488
aI212863
aI171499
aI104380
aI470937
aI30484
aI368626
aI141181
aI45471
aI568516
aI313786
aI364491
aI252122
aI466511
aI252194
aI381390
aI559645
aI180119
aI80140
aI17625
aI341639
aI437518
aI16837
aI64086
aI215488
aI184669
aI252811
aI560173
aI192494
aI461501
aI424816
aI309968
aI41616
aI387948
aI299657
aI142470
aI537382
aI314968
aI569656
aI361088
aI304950
aI211632
aI350741
aI8999
aI276164
aI172085
aI11619
aI125128
aI155652
aI578596
aI111281
aI222929
aI449721
aI8394
aI341503
aI542178
aI224942
aI179085
aI170451
aI581708
aI304949
aI362722
aI37771
aI365030
aI497267
aI572724
aI54086
aI38584
aI360066
aI361480
aI83691
aI17192
aI486404
aI374891
aI175129
aI76923
aI6426
aI349083
aI486769
aI493072
aI406077
aI195993
aI62864
aI221985
aI510525
aI84776
aI347403
aI507776
aI541506
aI488043
aI429318
aI73610
aI324688
aI552895
aI418354
aI99070
aI299623
aI338988
aI493618
aI400060
aI273053
aI218917
aI313596
aI489810
aI42853
aI208075
aI222472
aI148267
aI271972
aI558221
aI145610
aI69532
aI437958
aI463176
aI485757
aI367477
aI363171
aI323470
aI163645
aI66767
aI54555
aI420475
aI520533
aI182098
aI114203
aI139836
aI367164
aI295074
aI120952
aI59167
aI121785
aI251084
aI251183
aI127104
aI429251
aI242257
aI219173
aI203269
aI230968
aI470839
aI467137
aI317534
aI126994
aI402425
aI184176
aI316660
aI280160
aI122844
aI452737
aI119808
aI97049
aI74574
aI247603
aI351404
aI579414
aI271729
aI269366
aI383873
aI466941
aI147392
aI422876
aI116431
aI356445
aI317193
aI491494
aI130122
aI338439
aI151900
aI287025
aI459819
aI499958
aI109
aI243008
aI346314
aI567407
aI420442
aI527748
aI227568
aI556067
aI203827
aI134268
aI258270
aI249384
aI352182
aI428991
aI170562
aI86777
aI300011
aI231104
aI243846
aI1311
aI354994
aI339790
aI93098
aI339054
aI115502
aI344578
aI291056
aI560723
aI51067
aI235871
aI406414
aI579035
aI498563
aI82388
aI548690
aI545163
aI175143
aI119299
aI489914
aI491830
aI345880
aI379936
aI142187
aI455882
aI138148
aI175672
aI383329
aI426261
aI399276
aI94156
aI422669
aI487655
aI221243
aI220089
aI298112
aI102765
aI212070
aI305690
aI443243
aI91285
aI197962
aI398957
aI127268
aI535777
aI572304
aI40130
aI251523
aI117939
aI579663
aI378638
aI271924
aI309386
aI13603
aI22593
aI181909
aI359688
aI561635
aI424669
aI426204
aI236760
aI82980
aI413754
aI2007
aI399200
aI301954
aI92315
aI314614
aI52010
aI491743
aI271992
aI158169
aI465780
aI325332
aI334470
aI12933
aI445263
aI466974
aI542342
aI173611
aI411417
aI560270
aI188068
aI570015
aI538671
aI457219
aI95990
aI135135
aI389103
aI519845
aI430097
aI190157
aI350331
aI386847
aI327020
aI241388
aI409614
aI386984
aI3941
aI530202
aI73367
aI402386
aI142034
aI31926
aI29155
aI504524
aI354402
aI310607
aI379754
aI16839
aI25283
aI80431
aI96213
aI59385
aI405041
aI329134
aI4080
aI395560
aI168405
aI555625
aI174627
aI472659
aI191251
aI65900
aI457146
aI35216
aI528539
aI287849
aI39089
aI233463
aI378092
aI53339
aI181489
aI499538
aI494594
aI178645
aI299648
aI38888
aI334735
aI510371
aI215878
aI350086
aI419632
aI250195
aI5253
aI573330
aI186777
aI21136
aI70087
aI269945
aI523344
aI208319
aI524050
aI553428
aI384030
aI228855
aI271198
aI339403
aI496836
aI234988
aI465853
aI196701
aI347649
aI239803
aI436399
aI518548
aI291503
aI493978
aI521884
aI252956
aI19435
aI124992
aI58633
aI288025
aI564043
aI429207
aI57308
aI114500
aI477106
aI312662
aI154868
aI137273
aI389011
aI185759
aI483757
aI500904
aI338863
aI294603
aI148884
aI528131
aI65209
aI464174
aI94079
aI50031
aI579539
aI401838
aI378907
aI502553
aI22291
aI306990
aI507674
aI181053
aI289428
aI397315
aI369712
aI287886
aI438055
aI368879
aI562740
aI102634
aI5113
aI398895
aI518357
aI272613
aI369567
aI56647
aI443254
aI95085
aI73066
aI274916
aI15198
aI193095
aI218455
aI460694
aI324232
aI436780
aI142426
aI466627
aI198785
aI519906
aI235876
aI96211
aI113326
aI358200
aI343166
aI547796
aI96685
aI227363
aI383662
aI319120
aI163498
aI95747
aI540476
aI487516
aI343035
aI531049
aI422960
aI368750
aI425158
aI53719
aI411705
aI113236
aI466992
aI274074
aI378344
aI329105
aI465266
aI35783
aI97363
aI259398
aI9945
aI132123
aI143749
aI439890
aI75299
aI241283
aI75963
aI201374
aI209701
aI208240
aI245733
aI273497
aI334637
aI101692
aI452806
aI406366
aI136963
aI434053
aI333134
aI512662
aI379535
aI451825
aI426408
aI161914
aI376479
aI149834
aI393900
aI139839
aI397673
aI254536
aI526441
aI205283
aI303765
aI256808
aI420488
aI461510
aI454068
aI481772
aI47792
aI369920
aI116229
aI285195
aI293074
aI400860
aI235681
aI227724
aI541463
aI325175
aI360658
aI266503
aI527118
aI518855
aI440244
aI404696
aI255013
aI550925
aI400861
aI39632
aI528148
aI85501
aI140630
aI523034
aI466615
aI8564
aI540404
aI126020
aI570111
aI237186
aI324877
aI143367
aI433545
aI424254
aI564589
aI257615
aI264823
aI511436
aI121001
aI156594
aI178248
aI411934
aI531596
aI581018
aI240043
aI479316
aI170012
aI98987
aI284362
aI107225
aI246156
aI123935
aI367335
aI212690
aI118976
aI6424
aI238231
aI289767
aI419442
aI469816
aI199119
aI168993
aI448475
aI394139
aI545953
aI492684
aI397511
aI160302
aI147830
aI570978
aI419815
aI24036
aI236138
aI173876
aI377226
aI550670
aI534578
aI570719
aI252693
aI361738
aI408515
aI344705
aI235783
aI294747
aI497123
aI130950
aI548153
aI119145
aI184709
aI288259
aI93994
aI527012
aI55681
aI395498
aI97526
aI373492
aI547097
aI563168
aI420290
aI172778
aI208357
aI405862
aI555427
aI285563
aI107233
aI417204
aI444350
aI92990
aI530386
aI198764
aI384738
aI292864
aI59798
aI42808
aI547247
aI118207
aI412910
aI18401
aI446901
aI575417
aI263385
aI349230
aI505493
aI491801
aI244423
aI455853
aI75325
aI374651
aI313449
aI154801
aI347849
aI521298
aI433200
aI314095
aI274337
aI361942
aI443589
aI354205
aI335255
aI351112
aI232277
aI128752
aI84582
aI384909
aI289962
aI4968
aI401610
aI108112
aI367724
aI445500
aI521003
aI561885
aI292243
aI240586
aI340647
aI201508
aI327802
aI190981
aI403525
aI341062
aI266652
aI442078
aI324124
aI172151
aI82756
aI188139
aI247110
aI446618
aI120032
aI508815
aI328373
aI124765
aI145538
aI387512
aI52406
aI544921
aI120462
aI134071
aI57339
aI470995
aI327936
aI347736
aI295162
aI504298
aI535211
aI51985
aI30779
aI441655
aI237645
aI352739
aI239849
aI416202
aI504271
aI2374
aI490518
aI82874
aI134100
aI332812
aI558804
aI10179
aI10125
aI369630
aI6432
aI156471
aI505661
aI364476
aI269913
aI305445
aI316190
aI422899
aI471535
aI65211
aI180569
aI569607
aI579700
aI10566
aI484881
aI377301
aI101421
aI496583
aI498371
aI62745
aI535010
aI39926
aI90343
aI445075
aI240439
aI160137
aI276267
aI286204
aI191661
aI492170
aI496192
aI130733
aI493996
aI198751
aI278256
aI339074
aI222358
aI184751
aI329954
aI352724
aI43692
aI73262
aI454916
aI9822
aI7544
aI81784
aI214373
aI149874
aI478646
aI258676
aI353483
aI471409
aI60858
aI561864
aI149556
aI304143
aI129006
aI250533
aI74739
aI279563
aI177538
aI187465
aI64941
aI146091
aI360388
aI579604
aI151245
aI416869
aI66642
aI75614
aI233263
aI156878
aI15236
aI428445
aI433561
aI370824
aI503356
aI218648
aI484158
aI144620
aI403398
aI61206
aI239676
aI148165
aI6148
aI185437
aI66459
aI107011
aI410216
aI581071
aI56641
aI504093
aI390177
aI474622
aI543466
aI507827
aI237718
aI359379
aI510430
aI317322
aI151324
aI198600
aI266569
aI70829
aI386632
aI567332
aI11842
aI577749
aI302707
aI508913
aI522411
aI482300
aI491991
aI501972
aI216158
aI435584
aI555227
aI306393
aI271814
aI284468
aI365175
aI501006
aI83430
aI302349
aI135344
aI75637
aI423832
aI471881
aI91642
aI381996
aI262603
aI468932
aI177253
aI101646
aI47972
aI65588
aI518627
aI382945
aI518957
aI258882
aI205648
aI410836
aI301615
aI457922
aI531591
aI420363
aI112785
aI105100
aI500135
aI174901
aI288310
aI1408
aI227307
aI285149
aI250607
aI543618
aI537379
aI35094
aI198547
aI142794
aI55303
aI43936
aI342532
aI522150
aI366414
aI376972
aI185666
aI576187
aI297631
aI447345
aI129565
aI202112
aI526172
aI354429
aI8339
aI320566
aI67220
aI522579
aI427573
aI62958
aI354655
aI171012
aI391519
aI208954
aI507494
aI476501
aI389304
aI242079
aI31391
aI378821
aI223497
aI568884
aI5811
aI571768
aI136343
aI460470
aI190521
aI293277
aI555738
aI424429
aI459082
aI407812
aI193479
aI576527
aI360693
aI237445
aI67439
aI508207
aI109136
aI517305
aI531224
aI99162
aI577343
aI566984
aI345625
aI111330
aI511373
aI89203
aI76150
aI263589
aI279350
aI12641
aI28917
aI199244
aI514531
aI149424
aI384374
aI196775
aI147839
aI396536
aI234516
aI458876
aI530282
aI339250
aI275604
aI354718
aI501441
aI554756
aI295185
aI12726
aI532768
aI89115
aI547845
aI427618
aI361120
aI468503
aI374174
aI71714
aI339454
aI406245
aI415222
aI386429
aI549715
aI370650
aI459152
aI291574
aI428006
aI271058
aI84607
aI524467
aI86243
aI193148
aI328588
aI182029
aI539719
aI469614
aI122763
aI542458
aI44792
aI568369
aI457724
aI75270
aI537512
aI494968
aI181084
aI301602
aI579213
aI196804
aI452198
aI49268
aI451219
aI576752
aI562770
aI259439
aI442600
aI360189
aI563511
aI354248
aI218557
aI493740
aI1924
aI529842
aI440771
aI199028
aI534259
aI200946
aI30307
aI502153
aI310693
aI251589
aI258099
aI255975
aI403577
aI252160
aI79260
aI452944
aI69971
aI299764
aI421763
aI52751
aI357971
aI361148
aI442682
aI432877
aI361437
aI53347
aI575756
aI323889
aI31335
aI450434
aI467109
aI248730
aI138217
aI210249
aI279522
aI348950
aI320245
aI91387
aI337842
aI500962
aI400535
aI382695
aI342459
aI521574
aI44127
aI140990
aI42044
aI388294
aI309915
aI275190
aI338173
aI111671
aI490598
aI266386
aI553126
aI322325
aI146274
aI137794
aI463451
aI337883
aI496918
aI398350
aI564993
aI513743
aI555118
aI285488
aI325215
aI8311
aI385805
aI144812
aI407891
aI251230
aI19085
aI494749
aI272832
aI376668
aI409732
aI83219
aI507028
aI474396
aI212271
aI188685
aI537925
aI345391
aI140247
aI22559
aI559995
aI116732
aI406708
aI274376
aI385302
aI320390
aI13717
aI82881
aI359521
aI347933
aI94564
aI537424
aI242583
aI539920
aI564552
aI574635
aI276460
aI257706
aI292116
aI432339
aI29964
aI35045
aI289545
aI161071
aI402470
aI306240
aI58736
aI199678
aI144703
aI16525
aI465177
aI351397
aI141005
aI442461
aI575008
aI40625
aI244713
aI195352
aI395101
aI431012
aI67085
aI436453
aI289569
aI348637
aI343158
aI403940
aI196916
aI215391
aI567240
aI446661
aI13000
aI395469
aI352861
aI349318
aI257666
aI541208
aI269888
aI476500
aI328487
aI96826
aI390000
aI390001
aI66574
aI118989
aI485913
aI39733
aI346384
aI573191
aI412824
aI70104
aI349074
aI49254
aI122403
aI125860
aI246759
aI205181
aI358781
aI159582
aI233453
aI232181
aI186775
aI510781
aI44341
aI394739
aI478391
aI415659
aI300079
aI475929
aI109506
aI31524
aI388788
aI523002
aI59416
aI468542
aI178674
aI185233
aI552142
aI168963
aI294564
aI52440
aI471256
aI178429
aI99536
aI522350
aI221252
aI42003
aI359202
aI37039
aI333302
aI414479
aI462599
aI325012
aI525675
aI71749
aI136721
aI125995
aI31562
aI544502
aI450965
aI551472
aI329664
aI316727
aI364176
aI579053
aI349047
aI568647
aI412762
aI146533
aI112726
aI131902
aI356256
aI261597
aI78469
aI68821
aI435897
aI418982
aI471332
aI545394
aI193923
aI480676
aI491440
aI111010
aI466403
aI445491
aI534756
aI94
aI5377
aI289071
aI530894
aI3535
aI93119
aI68420
aI288262
aI270999
aI572801
aI374357
aI113328
aI262917
aI62031
aI434328
aI78695
aI262508
aI377331
aI384755
aI8734
aI499912
aI265139
aI348217
aI133766
aI145381
aI461464
aI14493
aI29241
aI362944
aI335339
aI421995
aI540695
aI62941
aI157029
aI62412
aI493880
aI249264
aI147052
aI275870
aI195860
aI160331
aI324580
aI400257
aI495752
aI543916
aI244283
aI1997
aI220932
aI5994
aI295556
aI442345
aI420372
aI277729
aI232546
aI410743
aI467325
aI394776
aI310688
aI400000
aI116894
aI112106
aI80445
aI27977
aI28307
aI417201
aI12109
aI579487
aI454683
aI578009
aI282440
aI203107
aI473531
aI160325
aI264365
aI506750
aI296892
aI43093
aI443397
aI571573
aI202168
aI35407
aI494660
aI487392
aI190942
aI183219
aI305427
aI112922
aI6465
aI451482
aI509740
aI203707
aI386166
aI443601
aI485014
aI142534
aI141382
aI386784
aI54124
aI552440
aI102885
aI437849
aI112207
aI63943
aI568311
aI366021
aI238345
aI220289
aI196198
aI125168
aI544703
aI163054
aI183413
aI222513
aI106471
aI345914
aI310213
aI485185
aI295840
aI235529
aI120683
aI18873
aI275868
aI240423
aI258450
aI488764
aI164687
aI396896
aI26162
aI459026
aI428817
aI248496
aI237201
aI492123
aI363224
aI297979
aI438663
aI397479
aI522530
aI119678
aI101330
aI267647
aI384463
aI362031
aI484758
aI329616
aI50913
aI254007
aI297559
aI260097
aI267661
aI459929
aI153616
aI363028
aI504861
aI311566
aI549459
aI553509
aI561308
aI559657
aI288021
aI175020
aI113370
aI236111
aI159714
aI307721
aI52826
aI399489
aI444783
aI547675
aI495258
aI554232
aI535510
aI192009
aI489070
aI159135
aI354831
aI551418
aI81885
aI200837
aI345417
aI459576
aI60892
aI532766
aI545844
aI222676
aI479560
aI57199
aI442026
aI272588
aI437485
aI343691
aI138790
aI115845
aI3483
aI219454
aI325042
aI476761
aI380171
aI254176
aI234720
aI454940
aI195644
aI93657
aI212780
aI327895
aI144091
aI413078
aI567066
aI265454
aI125213
aI172361
aI48194
aI194365
aI545191
aI388935
aI481930
aI459113
aI551197
aI132857
aI162908
aI178242
aI202410
aI8836
aI320926
aI421602
aI5757
aI546117
aI432593
aI405131
aI318483
aI334561
aI512258
aI36639
aI564957
aI479591
aI29287
aI305384
aI233925
aI222157
aI62943
aI250834
aI3602
aI7823
aI287378
aI135955
aI65325
aI63446
aI151115
aI301405
aI43464
aI117922
aI217103
aI403851
aI309795
aI140736
aI528019
aI287245
aI121235
aI336021
aI496783
aI44763
aI539023
aI391486
aI31752
aI209128
aI71651
aI241904
aI201035
aI471841
aI343002
aI164100
aI400149
aI331191
aI251804
aI370505
aI472226
aI71371
aI152514
aI81084
aI421873
aI261085
aI36996
aI437520
aI8965
aI517176
aI315944
aI167027
aI196245
aI266809
aI197120
aI237542
aI504833
aI195755
aI118920
aI287960
aI471669
aI273653
aI171231
aI307270
aI282670
aI363548
aI396415
aI36836
aI160701
aI514111
aI13528
aI115654
aI266274
aI544222
aI369762
aI192111
aI553851
aI516849
aI155582
aI445461
aI354410
aI562092
aI152711
aI376921
aI453167
aI105546
aI153039
aI159070
aI185436
aI69770
aI365372
aI514558
aI414571
aI383348
aI114403
aI216778
aI275917
aI164001
aI3511
aI109011
aI455294
aI400409
aI483043
aI128428
aI75846
aI328935
aI323203
aI546379
aI570938
aI537223
aI194698
aI356834
aI518853
aI505501
aI176765
aI552135
aI439493
aI293514
aI106463
aI242298
aI543517
aI550482
aI373033
aI311424
aI364420
aI52503
aI575260
aI568668
aI326613
aI573651
aI313980
aI124145
aI199063
aI168905
aI122164
aI5500
aI319676
aI292805
aI318247
aI359104
aI174474
aI146432
aI252022
aI280123
aI89072
aI80147
aI430325
aI454086
aI241797
aI200494
aI577035
aI146439
aI21183
aI555586
aI323958
aI29715
aI483530
aI482671
aI197264
aI254522
aI209638
aI36110
aI25230
aI547066
aI545428
aI60737
aI170464
aI475485
aI59910
aI27873
aI515057
aI455311
aI1674
aI560007
aI23298
aI255179
aI6230
aI276845
aI251283
aI378586
aI206889
aI17147
aI70444
aI291780
aI384151
aI519319
aI419364
aI111998
aI435653
aI451300
aI61524
aI574922
aI315997
aI246625
aI353384
aI488657
aI193867
aI335463
aI124880
aI488857
aI516490
aI151
aI348019
aI210480
aI212782
aI7729
aI534016
aI349931
aI307352
aI429334
aI137341
aI406068
aI322082
aI251335
aI204680
aI472012
aI350449
aI391175
aI169159
aI1264
aI46023
aI284233
aI447557
aI565002
aI268682
aI386043
aI559522
aI418134
aI62261
aI302855
aI215398
aI355186
aI159634
aI224476
aI282357
aI485374
aI535961
aI83117
aI106557
aI19927
aI429715
aI375645
aI206583
aI492298
aI217252
aI412190
aI341013
aI354695
aI37857
aI383580
aI258794
aI187131
aI475692
aI258856
aI63049
aI510012
aI240952
aI426591
aI180911
aI485843
aI220527
aI211935
aI566893
aI86818
aI114741
aI573988
aI86831
aI127575
aI138859
aI31673
aI322670
aI38435
aI14824
aI577685
aI392404
aI54586
aI132527
aI26263
aI16680
aI285138
aI564050
aI347655
aI85777
aI250877
aI171444
aI381476
aI212757
aI306798
aI282380
aI556636
aI379630
aI452652
aI515572
aI180794
aI129568
aI444953
aI537367
aI10265
aI488750
aI126674
aI244582
aI287519
aI304319
aI225508
aI47904
aI34528
aI358405
aI199598
aI157295
aI402051
aI321048
aI194248
aI192774
aI278989
aI275939
aI431516
aI389672
aI572804
aI41763
aI162996
aI433129
aI161595
aI132531
aI522807
aI128740
aI499697
aI470720
aI110251
aI447432
aI539068
aI21674
aI133284
aI577748
aI327808
aI211909
aI329126
aI232906
aI14320
aI558826
aI541039
aI381199
aI351240
aI132002
aI466430
aI390287
aI492383
aI491844
aI124914
aI225604
aI172925
aI46885
aI209345
aI175188
aI238562
aI517760
aI407238
aI550392
aI160459
aI190133
aI425917
aI568677
aI456640
aI463782
aI281237
aI276459
aI137547
aI259104
aI465060
aI281564
aI355957
aI267604
aI232517
aI8659
aI578793
aI37198
aI210580
aI388281
aI292051
aI474887
aI127893
aI218037
aI520758
aI537313
aI242663
aI327860
aI516012
aI541203
aI239854
aI257893
aI470951
aI141139
aI524676
aI306431
aI163302
aI155309
aI492351
aI106562
aI111182
aI465045
aI393422
aI428534
aI163591
aI331793
aI530294
aI129436
aI240433
aI507166
aI310511
aI563726
aI156066
aI289515
aI253049
aI210751
aI444168
aI529827
aI443455
aI472097
aI258237
aI460254
aI465211
aI438187
aI86086
aI14203
aI166853
aI483760
aI136088
aI566973
aI391406
aI336503
aI360779
aI230168
aI281774
aI547528
aI84314
aI353602
aI397486
aI114225
aI496321
aI533601
aI387243
aI466730
aI424342
aI242001
aI495352
aI399252
aI9999
aI207378
aI558876
aI176282
aI56668
aI458027
aI13325
aI25885
aI567234
aI213623
aI263478
aI319749
aI355737
aI139987
aI424059
aI553800
aI152913
aI298004
aI117743
aI253109
aI332543
aI242535
aI389016
aI492705
aI454103
aI411104
aI484929
aI262851
aI198169
aI490507
aI24072
aI449845
aI466480
aI420151
aI227035
aI327561
aI332767
aI334645
aI393297
aI426348
aI464474
aI353787
aI213312
aI445143
aI286368
aI566368
aI155496
aI506411
aI260630
aI140373
aI371302
aI133885
aI38411
aI118909
aI48601
aI404428
aI558508
aI80686
aI15273
aI538809
aI513111
aI574207
aI304382
aI280532
aI573954
aI303617
aI317476
aI307662
aI486163
aI548731
aI534334
aI289968
aI81447
aI441132
aI355462
aI287958
aI61076
aI402212
aI484734
aI344893
aI175277
aI57018
aI559235
aI236484
aI354668
aI166797
aI57157
aI499204
aI479680
aI160757
aI101552
aI554759
aI109862
aI99252
aI313541
aI570483
aI15394
aI350170
aI433975
aI99159
aI246794
aI169883
aI312355
aI420831
aI99321
aI207625
aI197155
aI145767
aI199533
aI186646
aI78361
aI235081
aI449889
aI311067
aI564186
aI97951
aI472549
aI298303
aI378268
aI84890
aI305259
aI484110
aI506062
aI299024
aI271806
aI206155
aI340375
aI17174
aI459959
aI291773
aI130053
aI524338
aI381811
aI474614
aI453704
aI281054
aI159453
aI474769
aI193654
aI258264
aI310783
aI344672
aI123612
aI118968
aI383956
aI256098
aI426474
aI261256
aI342363
aI333575
aI524063
aI171038
aI247680
aI15382
aI379649
aI475415
aI122667
aI46207
aI202490
aI489155
aI117034
aI568155
aI469514
aI396303
aI363410
aI144182
aI564361
aI402264
aI143636
aI243910
aI575274
aI325590
aI170390
aI570852
aI574114
aI449577
aI387296
aI387676
aI299433
aI427102
aI430890
aI58413
aI502588
aI130592
aI222970
aI434587
aI443667
aI199683
aI345635
aI98943
aI352564
aI440269
aI155167
aI22500
aI307729
aI382154
aI406709
aI26002
aI34063
aI167354
aI541421
aI26165
aI304867
aI387545
aI81294
aI216822
aI365206
aI516535
aI397782
aI255239
aI387480
aI20857
aI213790
aI164680
aI272176
aI541782
aI233869
aI35211
aI54052
aI253483
aI337448
aI580960
aI236386
aI538272
aI410531
aI118964
aI135794
aI119849
aI191403
aI548689
aI33126
aI241595
aI323536
aI256155
aI364437
aI559682
aI426903
aI277562
aI90274
aI259565
aI379349
aI199432
aI397925
aI264456
aI395703
aI272218
aI18006
aI354819
aI310502
aI442654
aI512068
aI394783
aI176298
aI173484
aI217864
aI429691
aI350885
aI306540
aI458189
aI391436
aI83407
aI78716
aI61535
aI49143
aI99407
aI243207
aI387704
aI414975
aI242446
aI227202
aI316528
aI424193
aI371928
aI309261
aI200671
aI132385
aI151859
aI286953
aI30038
aI14281
aI576625
aI9878
aI395742
aI481931
aI381856
aI393140
aI416576
aI27365
aI232387
aI211868
aI382707
aI19487
aI193879
aI465090
aI128002
aI336231
aI5505
aI300990
aI309635
aI371511
aI572207
aI487804
aI379261
aI420200
aI425825
aI13595
aI353485
aI547837
aI461835
aI258196
aI348722
aI195317
aI311076
aI94681
aI152958
aI303668
aI570807
aI435623
aI515457
aI172654
aI405209
aI412734
aI99537
aI135714
aI337062
aI312800
aI504025
aI61575
aI288131
aI136977
aI62293
aI63206
aI72978
aI79106
aI83153
aI406514
aI260901
aI365631
aI32442
aI435435
aI301296
aI144480
aI88835
aI453087
aI134236
aI214526
aI136652
aI310514
aI542499
aI433225
aI334700
aI18029
aI208244
aI327664
aI563233
aI453695
aI67143
aI114068
aI241963
aI195797
aI275492
aI152277
aI164655
aI216579
aI147314
aI517975
aI428788
aI27175
aI271395
aI253417
aI381810
aI197651
aI447197
aI21968
aI223598
aI167813
aI513676
aI463889
aI287528
aI343284
aI437944
aI4820
aI216432
aI437801
aI247718
aI381945
aI417006
aI265594
aI259790
aI422967
aI318598
aI423349
aI442322
aI124935
aI227453
aI28674
aI42751
aI507876
aI527112
aI153064
aI285019
aI351139
aI380274
aI78009
aI47294
aI145264
aI540
aI415042
aI33891
aI581563
aI475810
aI355161
aI121448
aI276703
aI256576
aI389948
aI494466
aI484065
aI22429
aI64616
aI100918
aI483334
aI161229
aI493329
aI33888
aI314279
aI131400
aI218307
aI205520
aI116656
aI420874
aI54607
aI455010
aI228934
aI224753
aI174015
aI213999
aI37377
aI556149
aI185623
aI580579
aI488127
aI415871
aI552004
aI164286
aI461004
aI36281
aI403692
aI72396
aI570963
aI86655
aI443916
aI515701
aI357898
aI404322
aI269788
aI525510
aI503401
aI442220
aI154462
aI13770
aI453545
aI63495
aI391892
aI333356
aI91989
aI128020
aI360238
aI117961
aI563711
aI425773
aI167675
aI171082
aI515502
aI79671
aI155061
aI131126
aI362793
aI456351
aI69087
aI405111
aI58735
aI514454
aI43933
aI334400
aI207978
aI74183
aI269360
aI220834
aI186148
aI458082
aI365657
aI61202
aI364748
aI348968
aI362118
aI251493
aI409591
aI373623
aI311965
aI81033
aI501624
aI39359
aI447633
aI538407
aI118413
aI479452
aI560978
aI197169
aI96294
aI230129
aI139198
aI503383
aI431872
aI161384
aI317532
aI313927
aI297981
aI120247
aI231315
aI295970
aI230273
aI175608
aI65262
aI247971
aI49434
aI503782
aI437908
aI157215
aI505583
aI577929
aI553271
aI417129
aI78042
aI437138
aI39475
aI326442
aI384412
aI102899
aI502678
aI221680
aI140946
aI524984
aI542338
aI283309
aI163761
aI572533
aI285132
aI241531
aI150161
aI246787
aI40114
aI219488
aI235916
aI148452
aI233938
aI70062
aI3870
aI186703
aI290072
aI285477
aI125042
aI276849
aI558656
aI426355
aI528654
aI353270
aI63724
aI458208
aI492125
aI349658
aI542630
aI396321
aI72095
aI413792
aI568948
aI148502
aI240057
aI240889
aI294029
aI224629
aI44267
aI263845
aI515527
aI282703
aI506842
aI493698
aI563898
aI29525
aI436584
aI321517
aI64170
aI404208
aI32116
aI428460
aI315508
aI53330
aI194676
aI193785
aI564074
aI396159
aI227231
aI146401
aI202465
aI61526
aI334097
aI141204
aI465195
aI267680
aI316447
aI557643
aI512757
aI464322
aI242303
aI180397
aI339446
aI87403
aI71589
aI389677
aI146237
aI16486
aI295358
aI71818
aI286688
aI233617
aI331076
aI125377
aI263111
aI518814
aI132000
aI548067
aI360297
aI387102
aI407112
aI375815
aI47767
aI471822
aI528996
aI450975
aI402081
aI236036
aI155864
aI178376
aI259360
aI339240
aI514772
aI489510
aI88401
aI470414
aI570512
aI541709
aI563514
aI268905
aI487058
aI403534
aI175418
aI522820
aI336061
aI154972
aI189469
aI577563
aI79824
aI277204
aI527477
aI433232
aI9176
aI44463
aI330229
aI83490
aI443671
aI13318
aI380096
aI424528
aI421539
aI542502
aI54560
aI494812
aI514798
aI567837
aI388744
aI134502
aI453132
aI232005
aI207622
aI258460
aI307194
aI13497
aI52299
aI419384
aI316140
aI161006
aI176621
aI577072
aI517579
aI358904
aI346433
aI422705
aI193385
aI560532
aI63879
aI95924
aI174711
aI567357
aI17181
aI461350
aI456113
aI229940
aI215706
aI114229
aI557695
aI460643
aI273358
aI574460
aI401182
aI467763
aI188889
aI389021
aI513966
aI481172
aI149366
aI196948
aI548428
aI482798
aI534663
aI8138
aI543683
aI179418
aI154399
aI572991
aI421744
aI380163
aI100124
aI121618
aI358756
aI511146
aI16418
aI65612
aI233137
aI550391
aI87100
aI85488
aI24728
aI122908
aI311644
aI487927
aI49640
aI288450
aI172743
aI286144
aI290761
aI482127
aI100140
aI308579
aI43269
aI73790
aI457121
aI177947
aI333841
aI516777
aI391956
aI411253
aI380898
aI83471
aI491114
aI171380
aI237699
aI391254
aI507257
aI485955
aI449244
aI367537
aI201019
aI404596
aI415660
aI506394
aI366103
aI459879
aI57979
aI108472
aI77160
aI134344
aI323213
aI79613
aI513861
aI80078
aI46426
aI105531
aI431750
aI2575
aI535136
aI175912
aI378827
aI66862
aI544731
aI159729
aI444769
aI393176
aI35102
aI161796
aI211983
aI476589
aI22256
aI276721
aI285679
aI273592
aI117336
aI570338
aI470797
aI275380
aI161062
aI529905
aI88875
aI316141
aI155386
aI36950
aI114521
aI291320
aI471188
aI480823
aI237587
aI402213
aI12155
aI58517
aI264806
aI501369
aI263204
aI524927
aI369049
aI497257
aI52256
aI143995
aI552089
aI349352
aI510304
aI537773
aI148703
aI82737
aI431692
aI21166
aI382100
aI487245
aI427992
aI557263
aI86686
aI267823
aI272758
aI9673
aI123749
aI240648
aI98639
aI100468
aI199196
aI43353
aI547465
aI344422
aI402598
aI268731
aI20460
aI175017
aI7852
aI162087
aI92188
aI143745
aI30299
aI231773
aI356938
aI463110
aI154503
aI331702
aI208931
aI508281
aI325654
aI147760
aI99417
aI110886
aI229875
aI455366
aI285740
aI529340
aI84731
aI484666
aI257489
aI447091
aI180466
aI343619
aI188599
aI474656
aI108228
aI430932
aI112320
aI527972
aI23735
aI257729
aI544893
aI269577
aI137396
aI58041
aI92331
aI456629
aI354604
aI154727
aI320911
aI336966
aI336690
aI11474
aI513441
aI383424
aI287299
aI479677
aI36725
aI136235
aI262492
aI576295
aI191785
aI127424
aI130392
aI336887
aI555814
aI159926
aI120790
aI376196
aI56132
aI28327
aI221891
aI501801
aI430260
aI173798
aI515853
aI139390
aI514601
aI550874
aI183327
aI422393
aI126305
aI557664
aI94148
aI98679
aI242969
aI187882
aI292572
aI433021
aI558269
aI386400
aI332732
aI517830
aI252340
aI405456
aI254150
aI429727
aI85817
aI455952
aI427770
aI563380
aI431340
aI61409
aI38751
aI542069
aI443547
aI38616
aI319332
aI329765
aI440534
aI275432
aI99008
aI335855
aI516471
aI329127
aI200814
aI296613
aI329724
aI444397
aI509023
aI7855
aI273253
aI433397
aI314626
aI429305
aI105626
aI487487
aI78394
aI106383
aI558444
aI227732
aI282730
aI99453
aI556089
aI362503
aI158794
aI281262
aI551246
aI518416
aI381154
aI254567
aI360500
aI424132
aI85700
aI42345
aI499446
aI325125
aI64356
aI481571
aI177899
aI479263
aI531488
aI178793
aI431921
aI433013
aI405840
aI220654
aI86981
aI231280
aI183293
aI82772
aI61326
aI312199
aI264514
aI487995
aI203400
aI566514
aI444799
aI20768
aI315521
aI140575
aI245409
aI259484
aI295049
aI363080
aI106646
aI259297
aI345602
aI238712
aI364934
aI540728
aI486503
aI55665
aI82494
aI287449
aI83454
aI560409
aI167642
aI523553
aI562678
aI194742
aI482252
aI250737
aI170636
aI96084
aI472551
aI251835
aI457672
aI444235
aI96466
aI554636
aI366734
aI389190
aI277263
aI286388
aI87847
aI456827
aI22710
aI237327
aI18482
aI344096
aI483752
aI369823
aI345658
aI299780
aI139216
aI79152
aI353006
aI238095
aI403837
aI568810
aI351242
aI12766
aI55984
aI134479
aI498173
aI462224
aI138772
aI50662
aI519628
aI49878
aI254281
aI273600
aI540716
aI68688
aI197195
aI84512
aI330756
aI97999
aI537649
aI284008
aI242116
aI29104
aI172040
aI390552
aI534972
aI120782
aI528712
aI306231
aI479763
aI214792
aI188225
aI81461
aI1611
aI322097
aI132521
aI82242
aI19681
aI175202
aI419439
aI491959
aI33213
aI359567
aI33758
aI3692
aI12494
aI16653
aI75120
aI453348
aI538001
aI561735
aI162020
aI87607
aI355357
aI382107
aI538167
aI229867
aI262662
aI374897
aI444214
aI485950
aI562253
aI323147
aI520921
aI574983
aI333895
aI109746
aI8519
aI270740
aI316561
aI355360
aI324635
aI225923
aI180941
aI413037
aI210368
aI1386
aI61478
aI364467
aI29894
aI369125
aI20030
aI29909
aI576040
aI253004
aI315339
aI392523
aI297152
aI3348
aI238505
aI338321
aI57750
aI432460
aI366025
aI292125
aI329541
aI431812
aI59892
aI532178
aI313131
aI45343
aI138164
aI86763
aI214729
aI12302
aI373648
aI352370
aI487413
aI296108
aI280883
aI265333
aI45446
aI81654
aI335200
aI232076
aI276766
aI111406
aI214413
aI234550
aI28742
aI569495
aI286227
aI392180
aI61992
aI339312
aI14886
aI353906
aI292498
aI326201
aI186315
aI312153
aI247700
aI66151
aI471500
aI571548
aI448842
aI543236
aI69979
aI43566
aI15830
aI43912
aI9091
aI402897
aI59218
aI39711
aI454205
aI120595
aI126590
aI191873
aI563179
aI955
aI141557
aI275008
aI201436
aI173430
aI509700
aI557045
aI502605
aI382969
aI306258
aI394879
aI434070
aI192795
aI311941
aI277161
aI64139
aI500984
aI466406
aI100519
aI28642
aI306094
aI294761
aI473779
aI411748
aI454745
aI466288
aI95953
aI76009
aI165990
aI449066
aI247818
aI144599
aI418964
aI139496
aI281939
aI417303
aI167330
aI119535
aI174406
aI188832
aI441943
aI98121
aI48664
aI307554
aI504886
aI27844
aI69977
aI174263
aI350063
aI272132
aI166356
aI204556
aI411384
aI56549
aI432896
aI87219
aI24181
aI352107
aI315383
aI531831
aI108101
aI192955
aI72850
aI18773
aI429335
aI90145
aI513449
aI521525
aI411658
aI243630
aI496374
aI29457
aI496902
aI126647
aI228920
aI550944
aI157872
aI418155
aI324650
aI295540
aI217221
aI5018
aI265184
aI509087
aI337087
aI166997
aI22940
aI11631
aI219921
aI466301
aI258094
aI347346
aI438946
aI213826
aI295762
aI411954
aI254714
aI350825
aI437597
aI35422
aI400477
aI561011
aI263036
aI288569
aI371254
aI254911
aI198319
aI482625
aI452968
aI161782
aI394065
aI523571
aI301156
aI328381
aI303389
aI294635
aI429084
aI570430
aI153123
aI137202
aI71122
aI568139
aI525980
aI51982
aI293704
aI21254
aI406034
aI422198
aI233497
aI52484
aI234616
aI320523
aI204039
aI335525
aI56922
aI254795
aI393508
aI115404
aI255164
aI556500
aI36757
aI482084
aI395444
aI325775
aI440891
aI305569
aI352407
aI557843
aI193023
aI468305
aI161019
aI2644
aI473384
aI303436
aI526419
aI537470
aI363252
aI464261
aI225608
aI144488
aI451392
aI578819
aI267192
aI106805
aI439200
aI317286
aI364374
aI422479
aI73109
aI511301
aI212941
aI457035
aI211927
aI158863
aI246688
aI362973
aI312577
aI37062
aI210568
aI370258
aI38747
aI302078
aI454452
aI231373
aI360695
aI225113
aI387900
aI320222
aI317986
aI202829
aI190554
aI371717
aI56715
aI128785
aI134858
aI337638
aI317935
aI220838
aI309679
aI163579
aI286611
aI575191
aI143736
aI108540
aI234536
aI448351
aI531956
aI310617
aI514890
aI533835
aI295505
aI399488
aI451597
aI535676
aI560615
aI408799
aI113261
aI536423
aI141834
aI113310
aI284336
aI50586
aI245638
aI175121
aI552392
aI437120
aI48784
aI78667
aI119449
aI282789
aI534723
aI204380
aI386762
aI260088
aI189882
aI179238
aI49553
aI463342
aI325471
aI322249
aI551441
aI268750
aI525101
aI340096
aI248133
aI289591
aI86107
aI389617
aI182860
aI551922
aI99104
aI283624
aI513080
aI33341
aI276610
aI287870
aI548471
aI575949
aI355406
aI255459
aI85211
aI331474
aI265889
aI19387
aI400848
aI398407
aI567671
aI494771
aI258649
aI137243
aI504988
aI65426
aI247348
aI167644
aI560989
aI11075
aI348826
aI470398
aI534573
aI115862
aI358684
aI542307
aI31497
aI231178
aI326113
aI122419
aI200749
aI399540
aI339913
aI74100
aI25102
aI270612
aI415629
aI577632
aI408263
aI523204
aI532277
aI290489
aI100503
aI414350
aI27108
aI312902
aI511412
aI4481
aI257796
aI431818
aI21330
aI482834
aI425187
aI301875
aI100642
aI359772
aI253261
aI36606
aI323466
aI296884
aI236176
aI384232
aI577975
aI576780
aI477580
aI559331
aI521482
aI404486
aI411624
aI443752
aI469092
aI135327
aI61809
aI393954
aI365187
aI325932
aI176871
aI549517
aI362141
aI372390
aI499725
aI572279
aI414178
aI100757
aI239040
aI18661
aI228246
aI148306
aI187611
aI332296
aI79274
aI448633
aI213124
aI185502
aI514006
aI294074
aI171848
aI553043
aI554010
aI248221
aI512152
aI243717
aI87845
aI383158
aI327610
aI51076
aI443941
aI559214
aI77849
aI341359
aI26274
aI200735
aI329124
aI509483
aI307182
aI414764
aI340152
aI395340
aI421228
aI443593
aI180086
aI327766
aI350510
aI246587
aI88140
aI43774
aI37719
aI72573
aI165050
aI103033
aI516124
aI126371
aI135242
aI386127
aI198405
aI537667
aI461295
aI26602
aI79552
aI333376
aI366984
aI523513
aI352233
aI72373
aI44240
aI414577
aI238352
aI92088
aI444210
aI95267
aI45481
aI231572
aI66858
aI316936
aI282293
aI367111
aI207875
aI141331
aI127360
aI162223
aI22582
aI115954
aI202818
aI110011
aI526291
aI67802
aI306824
aI161578
aI250
aI439356
aI21269
aI342797
aI167819
aI241974
aI327105
aI76159
aI396933
aI172297
aI267732
aI4741
aI475129
aI403761
aI316075
aI374916
aI422008
aI118249
aI230236
aI120836
aI308635
aI139039
aI278060
aI28658
aI433236
aI343969
aI148583
aI427350
aI13284
aI512143
aI446328
aI577613
aI139210
aI89390
aI450052
aI14988
aI241919
aI336314
aI318401
aI358921
aI72901
aI194643
aI38663
aI268081
aI274248
aI198263
aI374520
aI31367
aI214165
aI44960
aI448702
aI62995
aI101753
aI109558
aI160034
aI299382
aI460880
aI489343
aI75493
aI48394
aI476609
aI258554
aI215215
aI545676
aI280926
aI24859
aI151862
aI561468
aI573829
aI63263
aI52490
aI95329
aI334755
aI152556
aI145690
aI253971
aI556551
aI53672
aI332135
aI229378
aI451018
aI508855
aI42698
aI403521
aI547036
aI321897
aI248191
aI279060
aI252751
aI299679
aI277912
aI130581
aI72984
aI558475
aI167506
aI87083
aI435445
aI219489
aI460863
aI457519
aI304590
aI553150
aI543392
aI157809
aI336675
aI7592
aI329462
aI184965
aI161027
aI69856
aI230670
aI260826
aI210731
aI572937
aI89955
aI108259
aI65916
aI499259
aI228373
aI118730
aI90194
aI357733
aI348071
aI222716
aI468100
aI212025
aI433125
aI62652
aI496269
aI33444
aI275276
aI490182
aI50429
aI67937
aI521729
aI51260
aI125230
aI548702
aI4138
aI55682
aI29116
aI72910
aI277321
aI437710
aI435688
aI206956
aI258869
aI217893
aI353608
aI49470
aI163553
aI382341
aI169299
aI70541
aI255713
aI239693
aI74099
aI514318
aI481049
aI573854
aI58565
aI193469
aI19542
aI73235
aI212429
aI130032
aI371072
aI406920
aI517517
aI499353
aI487167
aI136928
aI467925
aI288472
aI149738
aI81107
aI122235
aI114363
aI148554
aI316275
aI105252
aI505003
aI144453
aI59321
aI217484
aI193732
aI231326
aI187609
aI23542
aI421193
aI266353
aI52131
aI42407
aI455860
aI54345
aI580971
aI441884
aI541553
aI174228
aI234956
aI497572
aI338670
aI41730
aI122584
aI370727
aI310654
aI114174
aI170080
aI480022
aI42867
aI426477
aI351159
aI245451
aI126956
aI494583
aI421320
aI462191
aI266912
aI33727
aI392879
aI209537
aI326320
aI302552
aI283122
aI153495
aI509350
aI408922
aI452774
aI54974
aI426680
aI239187
aI560786
aI178533
aI335683
aI40201
aI171637
aI514825
aI446882
aI506843
aI477029
aI293862
aI281103
aI40103
aI322952
aI321577
aI578232
aI493251
aI480502
aI569697
aI293880
aI229616
aI137127
aI394970
aI323476
aI103583
aI15289
aI491942
aI104443
aI91821
aI425439
aI385425
aI470697
aI227069
aI191321
aI145411
aI327849
aI393762
aI175951
aI285717
aI122142
aI472622
aI278907
aI309829
aI361603
aI11422
aI124466
aI270278
aI151050
aI88229
aI363302
aI426049
aI389183
aI151196
aI176442
aI254198
aI474180
aI397815
aI345042
aI187253
aI245895
aI559194
aI260932
aI86512
aI445590
aI427252
aI552417
aI153829
aI308095
aI481530
aI83625
aI62390
aI433133
aI463320
aI267042
aI12864
aI298347
aI310070
aI33918
aI268737
aI372635
aI133298
aI236336
aI290544
aI459000
aI564837
aI435242
aI427069
aI33215
aI280879
aI375096
aI192539
aI49741
aI114624
aI408163
aI534763
aI26266
aI489961
aI33442
aI557824
aI579291
aI229156
aI11138
aI28317
aI498615
aI80928
aI99063
aI141447
aI274684
aI335231
aI188087
aI491733
aI366382
aI516233
aI227825
aI64357
aI47944
aI140988
aI245160
aI12349
aI99626
aI203273
aI558555
aI579419
aI488261
aI492243
aI393290
aI201114
aI61648
aI91725
aI489279
aI368475
aI477566
aI520684
aI428301
aI86677
aI231351
aI237009
aI54541
aI126028
aI145570
aI282444
aI228035
aI378541
aI257416
aI375380
aI514064
aI250569
aI352410
aI411792
aI144391
aI191754
aI436406
aI216015
aI542695
aI276853
aI424980
aI526292
aI507263
aI354853
aI568744
aI219114
aI545310
aI58250
aI259703
aI299010
aI195826
aI325957
aI475626
aI388824
aI173887
aI276848
aI82745
aI184210
aI51310
aI300815
aI427103
aI291658
aI154518
aI176790
aI345879
aI124715
aI550934
aI404408
aI250424
aI44611
aI542033
aI141114
aI577076
aI102311
aI116963
aI409740
aI232420
aI319061
aI174694
aI143944
aI439175
aI129771
aI484598
aI315813
aI510757
aI204603
aI330573
aI82548
aI522708
aI543291
aI30345
aI333363
aI397986
aI175751
aI93070
aI115372
aI348860
aI172328
aI471
aI166503
aI389037
aI429585
aI401778
aI94420
aI167033
aI244870
aI95326
aI561354
aI177353
aI281285
aI78087
aI135345
aI383917
aI273245
aI385265
aI475232
aI270497
aI145645
aI379024
aI458970
aI173251
aI11697
aI222172
aI500945
aI290379
aI133208
aI581553
aI262446
aI482128
aI18099
aI283896
aI339186
aI335551
aI183012
aI332684
aI68194
aI205887
aI125266
aI156812
aI389755
aI174410
aI139263
aI43813
aI91778
aI54111
aI367538
aI263453
aI41565
aI218776
aI270749
aI179209
aI376919
aI22484
aI562157
aI73904
aI20702
aI348809
aI28085
aI205116
aI542041
aI487011
aI16361
aI33408
aI360982
aI460115
aI490875
aI226211
aI230209
aI342234
aI102929
aI908
aI385626
aI560525
aI203798
aI543407
aI43513
aI178337
aI510035
aI292763
aI193293
aI178742
aI111604
aI13489
aI384122
aI20549
aI508292
aI144298
aI348719
aI296693
aI1720
aI153421
aI213095
aI36811
aI217302
aI574203
aI223154
aI485300
aI378155
aI478982
aI337930
aI194574
aI385588
aI135206
aI288278
aI416544
aI76709
aI184155
aI400968
aI96339
aI242721
aI19397
aI572786
aI188037
aI305254
aI162717
aI508567
aI27495
aI367375
aI27370
aI549003
aI385492
aI535060
aI105733
aI451012
aI521209
aI13983
aI311395
aI577623
aI528432
aI196524
aI474562
aI21883
aI225587
aI389345
aI368208
aI338528
aI92988
aI435620
aI578002
aI171011
aI86292
aI506808
aI360179
aI723
aI80422
aI475763
aI319990
aI281180
aI90820
aI398575
aI534034
aI433413
aI504216
aI99402
aI368818
aI503061
aI362309
aI432909
aI11004
aI435163
aI262124
aI336063
aI54652
aI412442
aI159948
aI510538
aI536199
aI533356
aI442332
aI414022
aI330041
aI170180
aI245354
aI22032
aI489890
aI484951
aI24737
aI232344
aI7778
aI490665
aI227066
aI319440
aI350585
aI122653
aI234769
aI443929
aI12810
aI365645
aI375437
aI34235
aI369653
aI364104
aI21169
aI157526
aI391213
aI272351
aI260035
aI50222
aI13364
aI373596
aI75565
aI301218
aI389466
aI443764
aI144907
aI509815
aI375680
aI55288
aI346581
aI121107
aI292081
aI257034
aI387791
aI170765
aI399939
aI447983
aI323813
aI291158
aI514055
aI377597
aI416246
aI106823
aI324709
aI449103
aI554729
aI81311
aI572769
aI391203
aI428420
aI65162
aI106315
aI111772
aI275211
aI434966
aI451690
aI336369
aI150421
aI237355
aI55290
aI184389
aI129672
aI529772
aI243509
aI319351
aI184877
aI449914
aI116026
aI159109
aI492965
aI197950
aI480059
aI476106
aI497698
aI464634
aI13482
aI276218
aI81200
aI405562
aI572310
aI118881
aI210806
aI310055
aI326182
aI358599
aI435764
aI53662
aI468318
aI377756
aI69117
aI545753
aI171339
aI16209
aI116741
aI556969
aI115816
aI45335
aI470672
aI354863
aI411775
aI576756
aI553534
aI457824
aI369438
aI334121
aI552305
aI426602
aI188440
aI286137
aI276514
aI53479
aI88871
aI63217
aI337104
aI517005
aI394415
aI515428
aI340877
aI160614
aI394286
aI356110
aI398901
aI394992
aI141283
aI186544
aI286120
aI132768
aI16509
aI289367
aI558486
aI266436
aI149774
aI148297
aI347610
aI11694
aI337325
aI406170
aI374463
aI47544
aI15957
aI2448
aI363919
aI106902
aI148965
aI65247
aI572985
aI297258
aI254726
aI202645
aI338210
aI578070
aI131225
aI38022
aI375311
aI452168
aI93269
aI486123
aI90479
aI493187
aI99180
aI159175
aI373267
aI149634
aI60400
aI162792
aI29426
aI543855
aI181061
aI495919
aI307462
aI298747
aI52648
aI248091
aI104432
aI513983
aI292962
aI534353
aI337018
aI569253
aI513424
aI489735
aI310633
aI223348
aI173284
aI158051
aI253183
aI410707
aI414947
aI181017
aI382127
aI355922
aI252277
aI294214
aI211905
aI85322
aI532622
aI543371
aI252915
aI476525
aI316224
aI115226
aI492244
aI177060
aI282527
aI399512
aI445080
aI116185
aI180272
aI196686
aI402298
aI412855
aI91935
aI27511
aI5755
aI60458
aI122583
aI247346
aI405800
aI71881
aI310851
aI216921
aI199534
aI228678
aI482826
aI305858
aI17166
aI362713
aI80389
aI275245
aI399045
aI297058
aI103390
aI79530
aI65072
aI420446
aI320362
aI293271
aI184138
aI475656
aI140613
aI517510
aI151229
aI109654
aI100652
aI139355
aI565365
aI284012
aI30023
aI409166
aI19753
aI373575
aI423290
aI234916
aI300868
aI152677
aI321508
aI27706
aI182300
aI219752
aI405959
aI268681
aI417153
aI524248
aI127441
aI300399
aI261569
aI446899
aI475130
aI419700
aI293341
aI34827
aI44613
aI379992
aI280429
aI8086
aI277038
aI558697
aI547089
aI421773
aI445639
aI456886
aI328662
aI326207
aI550993
aI130749
aI99041
aI185368
aI107436
aI482734
aI239831
aI525380
aI340252
aI81126
aI342141
aI76476
aI125711
aI96154
aI17675
aI430220
aI435929
aI458640
aI75267
aI53111
aI237843
aI200830
aI318403
aI201069
aI75621
aI101736
aI517758
aI126239
aI452831
aI415427
aI347101
aI502248
aI312540
aI188165
aI291702
aI452821
aI100901
aI251312
aI107941
aI148527
aI256655
aI181149
aI209969
aI426519
aI534901
aI117796
aI254604
aI165550
aI166291
aI205159
aI125548
aI193281
aI34097
aI428109
aI131043
aI497483
aI237233
aI500071
aI506140
aI569301
aI146420
aI222913
aI338370
aI447588
aI399825
aI418049
aI572575
aI503500
aI329784
aI425629
aI458205
aI16784
aI355968
aI249804
aI231524
aI174814
aI35796
aI85744
aI244074
aI185358
aI445775
aI104556
aI42960
aI277088
aI244885
aI498138
aI8379
aI323360
aI51070
aI217151
aI386542
aI4245
aI414482
aI72382
aI107586
aI401402
aI515020
aI202523
aI396287
aI278675
aI558615
aI461826
aI501696
aI91159
aI456003
aI227185
aI525640
aI522771
aI161304
aI399408
aI199618
aI119714
aI450455
aI10710
aI494462
aI274949
aI262884
aI165200
aI353929
aI77346
aI303570
aI303593
aI579785
aI2591
aI236197
aI13720
aI485465
aI337552
aI481634
aI41456
aI139389
aI375737
aI312828
aI581057
aI309781
aI361359
aI436901
aI420021
aI221532
aI64440
aI251256
aI398040
aI191457
aI389682
aI409020
aI455696
aI163723
aI555446
aI96106
aI340258
aI28007
aI280643
aI54009
aI81
aI195772
aI90872
aI257807
aI38389
aI371863
aI8385
aI435145
aI266518
aI490496
aI223996
aI259040
aI94453
aI81102
aI431795
aI213731
aI334474
aI436837
aI401218
aI405057
aI199363
aI366049
aI156459
aI295325
aI67373
aI428565
aI24026
aI162898
aI72794
aI193465
aI84089
aI430617
aI455156
aI4201
aI421150
aI359996
aI121393
aI81155
aI107376
aI242582
aI179388
aI258552
aI155981
aI248108
aI465575
aI1877
aI125684
aI151455
aI159567
aI153861
aI125658
aI315425
aI217596
aI255214
aI315873
aI548652
aI235481
aI235809
aI573700
aI373653
aI353607
aI216742
aI387960
aI354608
aI312344
aI28806
aI19899
aI265544
aI133153
aI538250
aI385146
aI115718
aI237684
aI153817
aI10420
aI121852
aI410320
aI431184
aI206860
aI485550
aI62204
aI24769
aI369380
aI370868
aI570013
aI199963
aI396284
aI322707
aI26164
aI458637
aI439676
aI423412
aI254011
aI578459
aI63845
aI220571
aI64681
aI156849
aI197980
aI73782
aI418215
aI313020
aI265748
aI335717
aI205202
aI253712
aI457067
aI511580
aI533054
aI180624
aI166200
aI222351
aI485025
aI518649
aI122216
aI105388
aI190754
aI188575
aI389884
aI308475
aI478403
aI119822
aI153008
aI56065
aI8006
aI476324
aI375731
aI375464
aI158359
aI4706
aI362067
aI310926
aI530972
aI421155
aI404983
aI556771
aI182607
aI161610
aI169722
aI368893
aI47659
aI64032
aI267203
aI229301
aI260360
aI184204
aI402973
aI46059
aI64009
aI94842
aI212574
aI486630
aI95822
aI253217
aI212868
aI413999
aI134302
aI205439
aI384559
aI168717
aI467686
aI517910
aI42371
aI142
aI470097
aI473134
aI380657
aI354738
aI216763
aI103613
aI16246
aI335216
aI250517
aI537196
aI491117
aI554085
aI485234
aI209503
aI508485
aI291484
aI192867
aI14764
aI343849
aI549133
aI525318
aI231099
aI242216
aI338521
aI605
aI287289
aI536145
aI28392
aI473099
aI461705
aI72728
aI360643
aI123788
aI210024
aI192669
aI536619
aI282552
aI29275
aI545850
aI314993
aI228461
aI195810
aI200619
aI443790
aI490579
aI125313
aI341061
aI380457
aI203673
aI107918
aI260484
aI379037
aI410657
aI483070
aI206341
aI408557
aI209746
aI514218
aI400307
aI212873
aI268516
aI398648
aI4888
aI92301
aI535399
aI277127
aI137096
aI2755
aI49902
aI466599
aI271638
aI492321
aI12930
aI432832
aI150942
aI432851
aI211485
aI292923
aI366695
aI238808
aI518303
aI299769
aI576119
aI32606
aI523154
aI46408
aI454565
aI119423
aI508414
aI12544
aI436981
aI345084
aI385305
aI454821
aI136346
aI389134
aI364206
aI101110
aI351091
aI24782
aI90751
aI59170
aI206871
aI416586
aI160423
aI568050
aI143921
aI302971
aI413947
aI491936
aI109640
aI270959
aI68003
aI231840
aI464240
aI193579
aI554841
aI499164
aI359106
aI455808
aI188692
aI485680
aI371758
aI569867
aI363879
aI311564
aI510997
aI19185
aI333710
aI334950
aI242926
aI55410
aI240632
aI434389
aI521674
aI544089
aI360473
aI442988
aI405210
aI391297
aI114083
aI434141
aI499307
aI466001
aI85404
aI313768
aI324989
aI527963
aI164564
aI376697
aI524679
aI291855
aI288547
aI253221
aI22683
aI439373
aI246444
aI405316
aI113252
aI155170
aI414113
aI465824
aI369805
aI520000
aI278100
aI345020
aI382104
aI496740
aI195425
aI293647
aI454690
aI30235
aI198404
aI508680
aI66014
aI112252
aI366086
aI39555
aI572791
aI265557
aI531575
aI297770
aI181564
aI547164
aI459618
aI50463
aI205614
aI368768
aI523988
aI372723
aI37458
aI478006
aI515550
aI325279
aI253532
aI123099
aI335787
aI148994
aI561861
aI79191
aI314069
aI146786
aI266334
aI298203
aI57663
aI342122
aI497731
aI553184
aI367754
aI455505
aI216042
aI567976
aI214623
aI404172
aI170785
aI73174
aI86216
aI177125
aI327258
aI491910
aI144484
aI303992
aI290935
aI189598
aI506162
aI576771
aI353494
aI25799
aI486250
aI407050
aI303546
aI117230
aI294466
aI193359
aI142497
aI287324
aI129546
aI176587
aI553039
aI88068
aI357242
aI560158
aI350878
aI375425
aI145129
aI538116
aI557771
aI479219
aI390565
aI466134
aI182782
aI94618
aI301121
aI76792
aI295408
aI88165
aI453332
aI183554
aI461494
aI122973
aI190086
aI185848
aI343279
aI243018
aI461208
aI267229
aI295245
aI380651
aI99303
aI297872
aI46786
aI122704
aI333102
aI310706
aI43191
aI352828
aI51291
aI116196
aI290110
aI337760
aI457555
aI298147
aI299180
aI346544
aI437276
aI7713
aI207805
aI460287
aI318071
aI525039
aI501710
aI97890
aI349133
aI9452
aI130362
aI574025
aI529804
aI329018
aI219179
aI509509
aI524819
aI15930
aI129205
aI270596
aI466967
aI488553
aI87091
aI187443
aI517582
aI312240
aI162386
aI484506
aI553149
aI521749
aI170683
aI184397
aI560992
aI135545
aI561324
aI298692
aI477417
aI189295
aI299488
aI79298
aI59142
aI91288
aI63540
aI474832
aI497608
aI233829
aI483107
aI137094
aI364369
aI306207
aI402847
aI3305
aI207313
aI379941
aI374171
aI463564
aI355021
aI393922
aI556695
aI578951
aI110217
aI362263
aI218647
aI197300
aI491274
aI341039
aI228618
aI309956
aI106799
aI339529
aI200922
aI492267
aI558542
aI516799
aI502604
aI532411
aI251697
aI559306
aI158451
aI120369
aI462736
aI500740
aI493994
aI22145
aI478499
aI225070
aI44247
aI180131
aI534094
aI398696
aI75450
aI50806
aI350953
aI144349
aI218274
aI149739
aI131522
aI562124
aI163823
aI389292
aI246753
aI547827
aI59985
aI360869
aI134586
aI166043
aI11838
aI529570
aI395013
aI245139
aI490434
aI276168
aI506534
aI520942
aI77601
aI143877
aI311776
aI64908
aI574579
aI402174
aI517070
aI376623
aI64070
aI559438
aI55092
aI119047
aI575173
aI41808
aI470618
aI460728
aI460143
aI280224
aI414416
aI312574
aI224522
aI143054
aI454680
aI173607
aI102316
aI163055
aI154885
aI209816
aI504850
aI214450
aI183233
aI47451
aI288416
aI467762
aI397467
aI581293
aI81894
aI449508
aI224958
aI404750
aI276386
aI234118
aI42103
aI51390
aI198042
aI304221
aI285405
aI577723
aI35763
aI347405
a.