(dp1
S'dataset'
p2
S'flickr8k'
p3
sS'lrate'
p4
F0.01
sS'data_path'
p5
S'./data'
p6
sS'optimizer'
p7
S'rmsprop'
p8
sS'alpha_c'
p9
F0
sS'dictionary'
p10
NsS'reload_'
p11
I00
sS'alpha_entropy_c'
p12
F0.002
sS'batch_size'
p13
I16
sS'decay_c'
p14
F0
sS'max_epochs'
p15
I5000
sS'patience'
p16
I10
sS'save_per_epoch'
p17
I00
sS'n_layers_init'
p18
I1
sS'RL_sumCost'
p19
I01
sS'attn_type'
p20
S'stochastic'
p21
sS'dispFreq'
p22
I100
sS'selector'
p23
I00
sS'use_dropout_lstm'
p24
I00
sS'prev2out'
p25
I00
sS'dim'
p26
I1000
sS'use_dropout'
p27
I00
sS'dim_word'
p28
I100
sS'sampleFreq'
p29
I100
sS'semi_sampling_p'
p30
F0.5
sS'validFreq'
p31
I1000
sS'n_layers_out'
p32
I1
sS'n_layers_att'
p33
I1
sS'maxlen'
p34
I100
sS'saveto'
p35
S'model.npz'
p36
sS'saveFreq'
p37
I1000
sS'temperature'
p38
F1
sS'ctx_dim'
p39
I512
sS'valid_batch_size'
p40
I16
sS'ctx2out'
p41
I00
sS'lstm_encoder'
p42
I00
sS'n_layers_lstm'
p43
I1
sS'n_words'
p44
I10000
s.